; Function Attrs: mustprogress uwtable
define hidden void @_ZN2cv8tinyxml210XMLPrinter13PushAttributeEPKcj(ptr noundef nonnull align 8 dereferenceable(312) %0, ptr noundef %1, i32 noundef %2) local_unnamed_addr #4 align 2 {
  %4 = alloca [200 x i8], align 16
  call void @llvm.lifetime.start.p0(i64 200, ptr nonnull %4) #24
  %5 = call i32 (ptr, i64, ptr, ...) @snprintf(ptr noundef nonnull dereferenceable(1) %4, i64 noundef 200, ptr noundef nonnull @.str.1, i32 noundef %2) #24
  tail call void (ptr, ptr, ...) @_ZN2cv8tinyxml210XMLPrinter5PrintEPKcz(ptr noundef nonnull align 8 dereferenceable(312) %0, ptr noundef nonnull @.str.28, ptr noundef %1)
  %6 = getelementptr inbounds nuw i8, ptr %0, i64 138
  %7 = getelementptr inbounds nuw i8, ptr %0, i64 136
  %8 = load i8, ptr %7, align 8, !tbaa !167, !range !119, !noundef !120
  %9 = trunc nuw i8 %8 to i1
  br i1 %9, label %.preheader33.i, label %.loopexit34.thread.i

.preheader33.i:                                   ; preds = %3
  %10 = load i8, ptr %4, align 16, !tbaa !12
  %.not37.i = icmp eq i8 %10, 0
  br i1 %.not37.i, label %.loopexit34.i, label %.lr.ph40.i

.lr.ph40.i:                                       ; preds = %.preheader33.i, %32
  %11 = phi i8 [ %34, %32 ], [ %10, %.preheader33.i ]
  %.139.i = phi ptr [ %.2.i, %32 ], [ %4, %.preheader33.i ]
  %.12338.i = phi ptr [ %33, %32 ], [ %4, %.preheader33.i ]
  %or.cond.i = icmp ult i8 %11, 64
  br i1 %or.cond.i, label %12, label %32

12:                                               ; preds = %.lr.ph40.i
  %13 = zext nneg i8 %11 to i64
  %14 = getelementptr inbounds nuw i8, ptr %6, i64 %13
  %15 = load i8, ptr %14, align 1, !tbaa !30, !range !119, !noundef !120
  %16 = trunc nuw i8 %15 to i1
  br i1 %16, label %.preheader32.i, label %32

.preheader32.i:                                   ; preds = %12
  %17 = icmp ult ptr %.139.i, %.12338.i
  br i1 %17, label %.lr.ph.i, label %.preheader.i

.preheader.loopexit.i:                            ; preds = %.lr.ph.i
  %.pre.i = load i8, ptr %.12338.i, align 1, !tbaa !12
  br label %.preheader.i

.preheader.i:                                     ; preds = %.preheader.loopexit.i, %.preheader32.i
  %18 = phi i8 [ %11, %.preheader32.i ], [ %.pre.i, %.preheader.loopexit.i ]
  %.3.lcssa.i = phi ptr [ %.139.i, %.preheader32.i ], [ %21, %.preheader.loopexit.i ]
  br label %24

.lr.ph.i:                                         ; preds = %.preheader32.i, %.lr.ph.i
  %.335.i = phi ptr [ %21, %.lr.ph.i ], [ %.139.i, %.preheader32.i ]
  %19 = load i8, ptr %.335.i, align 1, !tbaa !12
  %20 = sext i8 %19 to i32
  call void (ptr, ptr, ...) @_ZN2cv8tinyxml210XMLPrinter5PrintEPKcz(ptr noundef nonnull align 8 dereferenceable(312) %0, ptr noundef nonnull @.str.23, i32 noundef %20)
  %21 = getelementptr inbounds nuw i8, ptr %.335.i, i64 1
  %22 = icmp ult ptr %21, %.12338.i
  br i1 %22, label %.lr.ph.i, label %.preheader.loopexit.i, !llvm.loop !175

23:                                               ; preds = %24
  %indvars.iv.next.i = add nuw nsw i64 %indvars.iv.i, 1
  %exitcond.not.i = icmp eq i64 %indvars.iv.next.i, 5
  br i1 %exitcond.not.i, label %.loopexit.i, label %24, !llvm.loop !176

24:                                               ; preds = %23, %.preheader.i
  %indvars.iv.i = phi i64 [ 0, %.preheader.i ], [ %indvars.iv.next.i, %23 ]
  %25 = getelementptr inbounds nuw [5 x %"struct.cv::tinyxml2::Entity"], ptr @_ZN2cv8tinyxml2L8entitiesE, i64 0, i64 %indvars.iv.i
  %26 = getelementptr inbounds nuw i8, ptr %25, i64 12
  %27 = load i8, ptr %26, align 4, !tbaa !23
  %28 = icmp eq i8 %27, %18
  br i1 %28, label %29, label %23

29:                                               ; preds = %24
  %30 = load ptr, ptr %25, align 16, !tbaa !20
  call void (ptr, ptr, ...) @_ZN2cv8tinyxml210XMLPrinter5PrintEPKcz(ptr noundef nonnull align 8 dereferenceable(312) %0, ptr noundef nonnull @.str.24, ptr noundef %30)
  br label %.loopexit.i

.loopexit.i:                                      ; preds = %23, %29
  %31 = getelementptr inbounds nuw i8, ptr %.3.lcssa.i, i64 1
  br label %32

32:                                               ; preds = %.loopexit.i, %12, %.lr.ph40.i
  %.2.i = phi ptr [ %31, %.loopexit.i ], [ %.139.i, %12 ], [ %.139.i, %.lr.ph40.i ]
  %33 = getelementptr inbounds nuw i8, ptr %.12338.i, i64 1
  %34 = load i8, ptr %33, align 1, !tbaa !12
  %.not.i = icmp eq i8 %34, 0
  br i1 %.not.i, label %.loopexit34.loopexit.i, label %.lr.ph40.i, !llvm.loop !177

.loopexit34.loopexit.i:                           ; preds = %32
  %.pre47.i = load i8, ptr %7, align 8, !tbaa !167, !range !119
  %.pre48.i = trunc nuw i8 %.pre47.i to i1
  br label %.loopexit34.i

.loopexit34.i:                                    ; preds = %.loopexit34.loopexit.i, %.preheader33.i
  %.pre-phi.i = phi i1 [ %.pre48.i, %.loopexit34.loopexit.i ], [ true, %.preheader33.i ]
  %.022.i = phi ptr [ %33, %.loopexit34.loopexit.i ], [ %4, %.preheader33.i ]
  %.021.i = phi ptr [ %.2.i, %.loopexit34.loopexit.i ], [ %4, %.preheader33.i ]
  %35 = ptrtoint ptr %.022.i to i64
  %36 = ptrtoint ptr %.021.i to i64
  %37 = sub i64 %35, %36
  %38 = icmp slt i64 %37, 1
  %or.cond30.not.i = select i1 %.pre-phi.i, i1 %38, i1 false
  br i1 %or.cond30.not.i, label %_ZN2cv8tinyxml210XMLPrinter11PrintStringEPKcb.exit, label %.loopexit34.thread.i

.loopexit34.thread.i:                             ; preds = %.loopexit34.i, %3
  %.02153.i = phi ptr [ %.021.i, %.loopexit34.i ], [ %4, %3 ]
  call void (ptr, ptr, ...) @_ZN2cv8tinyxml210XMLPrinter5PrintEPKcz(ptr noundef nonnull align 8 dereferenceable(312) %0, ptr noundef nonnull @.str.20, ptr noundef %.02153.i)
  br label %_ZN2cv8tinyxml210XMLPrinter11PrintStringEPKcb.exit

_ZN2cv8tinyxml210XMLPrinter11PrintStringEPKcb.exit: ; preds = %.loopexit34.i, %.loopexit34.thread.i
  call void (ptr, ptr, ...) @_ZN2cv8tinyxml210XMLPrinter5PrintEPKcz(ptr noundef nonnull align 8 dereferenceable(312) %0, ptr noundef nonnull @.str.29)
  call void @llvm.lifetime.end.p0(i64 200, ptr nonnull %4) #24
  ret void
}